; Function Attrs: nounwind uwtable
define noalias nonnull ptr @l_Lean_Compiler_LCNF_trace___boxed(ptr noundef %0) local_unnamed_addr #0 {
  %2 = ptrtoint ptr %0 to i64
  %3 = and i64 %2, 1
  %.not = icmp eq i64 %3, 0
  br i1 %.not, label %4, label %lean_dec.exit

4:                                                ; preds = %1
  %5 = load i32, ptr %0, align 4, !tbaa !4
  %6 = icmp sgt i32 %5, 1
  br i1 %6, label %7, label %9, !prof !9

7:                                                ; preds = %4
  %8 = add nsw i32 %5, -1
  store i32 %8, ptr %0, align 4, !tbaa !4
  br label %lean_dec.exit

9:                                                ; preds = %4
  %.not.i = icmp eq i32 %5, 0
  br i1 %.not.i, label %lean_dec.exit, label %10

10:                                               ; preds = %9
  tail call void @lean_dec_ref_cold(ptr noundef nonnull %0) #5
  br label %lean_dec.exit

lean_dec.exit:                                    ; preds = %10, %9, %7, %1
  %11 = load ptr, ptr @l_Lean_Compiler_LCNF_trace___closed__2, align 8, !tbaa !10
  %12 = load ptr, ptr @l_Lean_Compiler_LCNF_trace___closed__3, align 8, !tbaa !10
  tail call void @lean_inc_heartbeat() #5
  %13 = tail call noalias ptr @mi_malloc_small(i64 noundef 40) #5
  %14 = icmp eq ptr %13, null
  br i1 %14, label %15, label %l_Lean_Compiler_LCNF_trace.exit

15:                                               ; preds = %lean_dec.exit
  tail call void @lean_internal_panic_out_of_memory() #6
  unreachable

l_Lean_Compiler_LCNF_trace.exit:                  ; preds = %lean_dec.exit
  %16 = lshr i64 %2, 1
  %17 = trunc i64 %16 to i8
  %18 = getelementptr inbounds nuw i8, ptr %13, i64 4
  %19 = getelementptr inbounds nuw i8, ptr %13, i64 32
  store i64 0, ptr %19, align 8, !tbaa !12
  store i32 1, ptr %13, align 4, !tbaa !4
  store i32 196648, ptr %18, align 4
  %20 = getelementptr inbounds nuw i8, ptr %13, i64 8
  store ptr inttoptr (i64 1 to ptr), ptr %20, align 8, !tbaa !10
  %21 = getelementptr inbounds nuw i8, ptr %13, i64 16
  store ptr %11, ptr %21, align 8, !tbaa !10
  %22 = getelementptr inbounds nuw i8, ptr %13, i64 24
  store ptr %12, ptr %22, align 8, !tbaa !10
  store i8 %17, ptr %19, align 1, !tbaa !14
  %23 = getelementptr inbounds nuw i8, ptr %13, i64 33
  store i8 %17, ptr %23, align 1, !tbaa !14
  ret ptr %13
}